target datalayout = "e-m:e-p270:32:32-p271:32:32-p272:64:64-i64:64-i128:128-f80:128-n8:16:32:64-S128"
target triple = "x86_64-pc-linux-gnu"

%struct.anon = type { ptr, ptr }
%struct._php_stream_filter_ops = type { ptr, ptr, ptr }

; Function Attrs: nounwind uwtable
define hidden i32 @zm_shutdown_standard_filters(i32 noundef %0, i32 noundef %1) #0 {
  %3 = alloca i32, align 4
  %4 = alloca i32, align 4
  %5 = alloca i32, align 4
  store i32 %0, ptr %3, align 4
  store i32 %1, ptr %4, align 4
  store i32 0, ptr %5, align 4
  br label %6

6:                                                ; preds = %22, %2
  %7 = load i32, ptr %5, align 4
  %8 = sext i32 %7 to i64
  %9 = getelementptr inbounds [7 x %struct.anon], ptr @standard_filters, i64 0, i64 %8
  %10 = getelementptr inbounds %struct.anon, ptr %9, i32 0, i32 0
  %11 = load ptr, ptr %10, align 16
  %12 = icmp ne ptr %11, null
  br i1 %12, label %13, label %25

13:                                               ; preds = %6
  %14 = load i32, ptr %5, align 4
  %15 = sext i32 %14 to i64
  %16 = getelementptr inbounds [7 x %struct.anon], ptr @standard_filters, i64 0, i64 %15
  %17 = getelementptr inbounds %struct.anon, ptr %16, i32 0, i32 0
  %18 = load ptr, ptr %17, align 16
  %19 = getelementptr inbounds %struct._php_stream_filter_ops, ptr %18, i32 0, i32 2
  %20 = load ptr, ptr %19, align 8
  %21 = call i32 @php_stream_filter_unregister_factory(ptr noundef %20)
  br label %22

22:                                               ; preds = %13
  %23 = load i32, ptr %5, align 4
  %24 = add nsw i32 %23, 1
  store i32 %24, ptr %5, align 4
  br label %6

25:                                               ; preds = %6
  ret i32 0
}