; Function Attrs: nounwind uwtable
define hidden noundef i32 @zm_shutdown_standard_filters(i32 noundef %0, i32 noundef %1) local_unnamed_addr #0 {
  br label %3

3:                                                ; preds = %2, %3
  %indvars.iv = phi i64 [ 0, %2 ], [ %indvars.iv.next, %3 ]
  %4 = phi ptr [ @strfilter_rot13_ops, %2 ], [ %9, %3 ]
  %5 = getelementptr inbounds i8, ptr %4, i64 16
  %6 = load ptr, ptr %5, align 8
  %7 = tail call i32 @php_stream_filter_unregister_factory(ptr noundef %6) #18
  %indvars.iv.next = add nuw nsw i64 %indvars.iv, 1
  %8 = getelementptr inbounds [7 x %struct.anon], ptr @standard_filters, i64 0, i64 %indvars.iv.next
  %9 = load ptr, ptr %8, align 16
  %exitcond = icmp eq i64 %indvars.iv.next, 6
  br i1 %exitcond, label %10, label %3

10:                                               ; preds = %3
  ret i32 0
}